target datalayout = "e-m:e-p270:32:32-p271:32:32-p272:64:64-i64:64-i128:128-f80:128-n8:16:32:64-S128"
target triple = "x86_64-pc-linux-gnu"

%struct._StringInfo = type { ptr, i32 }
%struct._address = type { i32, i32, ptr, ptr }
%struct._SslDecryptSession = type { [48 x i8], [256 x i8], [32 x i8], [32 x i8], %struct._StringInfo, %struct._StringInfo, %struct._StringInfo, %struct._StringInfo, %struct._StringInfo, %struct._StringInfo, %struct._StringInfo, [24 x i8], %struct._StringInfo, [24 x i8], %struct._StringInfo, i32, ptr, ptr, ptr, ptr, ptr, ptr, %struct._StringInfo, %struct._StringInfo, %struct._SslSession, i8, %struct._StringInfo }
%struct._SslSession = type { i32, i32, i16, i8, [32 x i8], i8, i8, i32, i32, i32, %struct._StringInfo, i8, i8, [8 x i8], [8 x i8], [16 x i8], %struct._address, i32, i32, ptr, ptr, ptr, i32, i8, i32, i32, ptr, ptr, i8, i8, i8, i8, i8, [2 x i64], [2 x i64] }

@proto_dtls = internal global i32 0, align 4
@dtls_associations = internal global ptr null, align 8
@.str.963 = private unnamed_addr constant [33 x i8] c"decrypt_dtls_record: no session\0A\00", align 1
@.str.964 = private unnamed_addr constant [52 x i8] c"decrypt_dtls_record: app_data len %d, ssl state %X\0A\00", align 1
@.str.965 = private unnamed_addr constant [43 x i8] c"decrypt_dtls_record: using server decoder\0A\00", align 1
@.str.966 = private unnamed_addr constant [43 x i8] c"decrypt_dtls_record: using client decoder\0A\00", align 1
@.str.967 = private unnamed_addr constant [43 x i8] c"decrypt_dtls_record: no decoder available\0A\00", align 1
@dtls_decrypted_data = internal global %struct._StringInfo zeroinitializer, align 8
@.str.968 = private unnamed_addr constant [72 x i8] c"decrypt_dtls_record: allocating %d bytes for decrypt data (old len %d)\0A\00", align 1
@dtls_decrypted_data_avail = internal global i32 0, align 4
@dtls_compressed_data = internal global %struct._StringInfo zeroinitializer, align 8
@.str.969 = private unnamed_addr constant [27 x i8] c"%s found %d padding bytes\0A\00", align 1
@__func__.dtls_save_decrypted_record = private unnamed_addr constant [27 x i8] c"dtls_save_decrypted_record\00", align 1
@.str.970 = private unnamed_addr constant [39 x i8] c"%s there is no room for content type!\0A\00", align 1

; Function Attrs: null_pointer_is_valid sspstrong uwtable
define internal void @dtls_save_decrypted_record(ptr noundef %0, i32 noundef %1, i8 noundef zeroext %2, i8 noundef zeroext %3, i1 noundef zeroext %4) #0 {
  %6 = alloca ptr, align 8
  %7 = alloca i32, align 4
  %8 = alloca i8, align 1
  %9 = alloca i8, align 1
  %10 = alloca i8, align 1
  %11 = alloca ptr, align 8
  %12 = alloca i32, align 4
  %13 = alloca i32, align 4
  store ptr %0, ptr %6, align 8
  store i32 %1, ptr %7, align 4
  store i8 %2, ptr %8, align 1
  store i8 %3, ptr %9, align 1
  %14 = zext i1 %4 to i8
  store i8 %14, ptr %10, align 1
  call void @llvm.lifetime.start.p0(i64 8, ptr %11) #12
  %15 = load ptr, ptr @dtls_decrypted_data, align 8
  store ptr %15, ptr %11, align 8
  call void @llvm.lifetime.start.p0(i64 4, ptr %12) #12
  %16 = load i32, ptr @dtls_decrypted_data_avail, align 4
  store i32 %16, ptr %12, align 4
  %17 = load i32, ptr %12, align 4
  %18 = icmp eq i32 %17, 0
  br i1 %18, label %19, label %20

19:                                               ; preds = %5
  store i32 1, ptr %13, align 4
  br label %72

20:                                               ; preds = %5
  %21 = load i8, ptr %8, align 1
  %22 = zext i8 %21 to i32
  %23 = icmp eq i32 %22, 25
  br i1 %23, label %27, label %24

24:                                               ; preds = %20
  %25 = load i8, ptr %10, align 1, !range !6, !noundef !7
  %26 = trunc i8 %25 to i1
  br i1 %26, label %27, label %63

27:                                               ; preds = %24, %20
  br label %28

28:                                               ; preds = %42, %27
  %29 = load i32, ptr %12, align 4
  %30 = icmp ugt i32 %29, 0
  br i1 %30, label %31, label %40

31:                                               ; preds = %28
  %32 = load ptr, ptr %11, align 8
  %33 = load i32, ptr %12, align 4
  %34 = sub i32 %33, 1
  %35 = zext i32 %34 to i64
  %36 = getelementptr i8, ptr %32, i64 %35
  %37 = load i8, ptr %36, align 1
  %38 = zext i8 %37 to i32
  %39 = icmp eq i32 %38, 0
  br label %40

40:                                               ; preds = %31, %28
  %41 = phi i1 [ false, %28 ], [ %39, %31 ]
  br i1 %41, label %42, label %45

42:                                               ; preds = %40
  %43 = load i32, ptr %12, align 4
  %44 = add i32 %43, -1
  store i32 %44, ptr %12, align 4
  br label %28, !llvm.loop !19

45:                                               ; preds = %40
  %46 = load i32, ptr @dtls_decrypted_data_avail, align 4
  %47 = load i32, ptr %12, align 4
  %48 = sub i32 %46, %47
  call void (ptr, ...) @ssl_debug_printf(ptr noundef @.str.969, ptr noundef @__func__.dtls_save_decrypted_record, i32 noundef %48)
  %49 = load i32, ptr %12, align 4
  %50 = icmp eq i32 %49, 0
  br i1 %50, label %51, label %52

51:                                               ; preds = %45
  call void (ptr, ...) @ssl_debug_printf(ptr noundef @.str.970, ptr noundef @__func__.dtls_save_decrypted_record)
  store i32 1, ptr %13, align 4
  br label %72

52:                                               ; preds = %45
  %53 = load ptr, ptr %11, align 8
  %54 = load i32, ptr %12, align 4
  %55 = add i32 %54, -1
  store i32 %55, ptr %12, align 4
  %56 = zext i32 %55 to i64
  %57 = getelementptr i8, ptr %53, i64 %56
  %58 = load i8, ptr %57, align 1
  store i8 %58, ptr %8, align 1
  %59 = load i32, ptr %12, align 4
  %60 = icmp eq i32 %59, 0
  br i1 %60, label %61, label %62

61:                                               ; preds = %52
  store i32 1, ptr %13, align 4
  br label %72

62:                                               ; preds = %52
  br label %63

63:                                               ; preds = %62, %24
  %64 = load i32, ptr @proto_dtls, align 4
  %65 = load ptr, ptr %6, align 8
  %66 = load ptr, ptr %11, align 8
  %67 = load i32, ptr %12, align 4
  %68 = load i32, ptr %7, align 4
  %69 = load i8, ptr %8, align 1
  %70 = zext i8 %69 to i32
  %71 = load i8, ptr %9, align 1
  call void @ssl_add_record_info(i32 noundef %64, ptr noundef %65, ptr noundef %66, i32 noundef %67, i32 noundef %68, ptr noundef null, i32 noundef %70, i8 noundef zeroext %71)
  store i32 0, ptr %13, align 4
  br label %72

72:                                               ; preds = %63, %61, %51, %19
  call void @llvm.lifetime.end.p0(i64 4, ptr %12) #12
  call void @llvm.lifetime.end.p0(i64 8, ptr %11) #12
  %73 = load i32, ptr %13, align 4
  switch i32 %73, label %75 [
    i32 0, label %74
    i32 1, label %74
  ]

74:                                               ; preds = %72, %72
  ret void

75:                                               ; preds = %72
  unreachable
}

; Function Attrs: null_pointer_is_valid sspstrong uwtable
define internal zeroext i1 @decrypt_dtls_record(ptr noundef %0, ptr noundef %1, i32 noundef %2, ptr noundef %3, i8 noundef zeroext %4, i16 noundef zeroext %5, i16 noundef zeroext %6, i8 noundef zeroext %7, ptr noundef %8, i8 noundef zeroext %9) #0 {
  %11 = alloca i1, align 1
  %12 = alloca ptr, align 8
  %13 = alloca ptr, align 8
  %14 = alloca i32, align 4
  %15 = alloca ptr, align 8
  %16 = alloca i8, align 1
  %17 = alloca i16, align 2
  %18 = alloca i16, align 2
  %19 = alloca i8, align 1
  %20 = alloca ptr, align 8
  %21 = alloca i8, align 1
  %22 = alloca i8, align 1
  %23 = alloca ptr, align 8
  %24 = alloca i32, align 4
  store ptr %0, ptr %12, align 8
  store ptr %1, ptr %13, align 8
  store i32 %2, ptr %14, align 4
  store ptr %3, ptr %15, align 8
  store i8 %4, ptr %16, align 1
  store i16 %5, ptr %17, align 2
  store i16 %6, ptr %18, align 2
  store i8 %7, ptr %19, align 1
  store ptr %8, ptr %20, align 8
  store i8 %9, ptr %21, align 1
  call void @llvm.lifetime.start.p0(i64 1, ptr %22) #12
  call void @llvm.lifetime.start.p0(i64 8, ptr %23) #12
  %25 = load ptr, ptr %15, align 8
  %26 = icmp ne ptr %25, null
  br i1 %26, label %28, label %27

27:                                               ; preds = %10
  call void (ptr, ...) @ssl_debug_printf(ptr noundef @.str.963)
  store i1 false, ptr %11, align 1
  store i32 1, ptr %24, align 4
  br label %107

28:                                               ; preds = %10
  %29 = load i16, ptr %18, align 2
  %30 = zext i16 %29 to i32
  %31 = load ptr, ptr %15, align 8
  %32 = getelementptr inbounds nuw %struct._SslDecryptSession, ptr %31, i32 0, i32 15
  %33 = load i32, ptr %32, align 8
  call void (ptr, ...) @ssl_debug_printf(ptr noundef @.str.964, i32 noundef %30, i32 noundef %33)
  %34 = load ptr, ptr %15, align 8
  %35 = getelementptr inbounds nuw %struct._SslDecryptSession, ptr %34, i32 0, i32 24
  %36 = load ptr, ptr @dtls_associations, align 8
  %37 = load ptr, ptr %13, align 8
  %38 = call i32 @ssl_packet_from_server(ptr noundef %35, ptr noundef %36, ptr noundef %37)
  %39 = icmp ne i32 %38, 0
  br i1 %39, label %40, label %44

40:                                               ; preds = %28
  call void (ptr, ...) @ssl_debug_printf(ptr noundef @.str.965)
  %41 = load ptr, ptr %15, align 8
  %42 = getelementptr inbounds nuw %struct._SslDecryptSession, ptr %41, i32 0, i32 17
  %43 = load ptr, ptr %42, align 8
  store ptr %43, ptr %23, align 8
  br label %48

44:                                               ; preds = %28
  call void (ptr, ...) @ssl_debug_printf(ptr noundef @.str.966)
  %45 = load ptr, ptr %15, align 8
  %46 = getelementptr inbounds nuw %struct._SslDecryptSession, ptr %45, i32 0, i32 18
  %47 = load ptr, ptr %46, align 8
  store ptr %47, ptr %23, align 8
  br label %48

48:                                               ; preds = %44, %40
  %49 = load ptr, ptr %23, align 8
  %50 = icmp ne ptr %49, null
  br i1 %50, label %52, label %51

51:                                               ; preds = %48
  call void (ptr, ...) @ssl_debug_printf(ptr noundef @.str.967)
  store i1 false, ptr %11, align 1
  store i32 1, ptr %24, align 4
  br label %107

52:                                               ; preds = %48
  %53 = load i16, ptr %18, align 2
  %54 = zext i16 %53 to i32
  %55 = load i32, ptr getelementptr inbounds nuw (%struct._StringInfo, ptr @dtls_decrypted_data, i32 0, i32 1), align 8
  %56 = icmp ugt i32 %54, %55
  br i1 %56, label %57, label %71

57:                                               ; preds = %52
  %58 = load i16, ptr %18, align 2
  %59 = zext i16 %58 to i32
  %60 = add i32 %59, 32
  %61 = load i32, ptr getelementptr inbounds nuw (%struct._StringInfo, ptr @dtls_decrypted_data, i32 0, i32 1), align 8
  call void (ptr, ...) @ssl_debug_printf(ptr noundef @.str.968, i32 noundef %60, i32 noundef %61)
  %62 = load ptr, ptr @dtls_decrypted_data, align 8
  %63 = load i16, ptr %18, align 2
  %64 = zext i16 %63 to i32
  %65 = add i32 %64, 32
  %66 = sext i32 %65 to i64
  %67 = call ptr @g_realloc(ptr noundef %62, i64 noundef %66)
  store ptr %67, ptr @dtls_decrypted_data, align 8
  %68 = load i16, ptr %18, align 2
  %69 = zext i16 %68 to i32
  %70 = add i32 %69, 32
  store i32 %70, ptr getelementptr inbounds nuw (%struct._StringInfo, ptr @dtls_decrypted_data, i32 0, i32 1), align 8
  br label %71

71:                                               ; preds = %57, %52
  %72 = load i32, ptr getelementptr inbounds nuw (%struct._StringInfo, ptr @dtls_decrypted_data, i32 0, i32 1), align 8
  store i32 %72, ptr @dtls_decrypted_data_avail, align 4
  %73 = load ptr, ptr %15, align 8
  %74 = load ptr, ptr %23, align 8
  %75 = load i8, ptr %16, align 1
  %76 = load i16, ptr %17, align 2
  %77 = load ptr, ptr %12, align 8
  %78 = load i32, ptr %14, align 4
  %79 = load i16, ptr %18, align 2
  %80 = zext i16 %79 to i32
  %81 = call ptr @tvb_get_ptr(ptr noundef %77, i32 noundef %78, i32 noundef %80)
  %82 = load i16, ptr %18, align 2
  %83 = load ptr, ptr %20, align 8
  %84 = load i8, ptr %21, align 1
  %85 = call i32 @ssl_decrypt_record(ptr noundef %73, ptr noundef %74, i8 noundef zeroext %75, i16 noundef zeroext %76, i1 noundef zeroext false, ptr noundef %81, i16 noundef zeroext %82, ptr noundef %83, i8 noundef zeroext %84, ptr noundef @dtls_compressed_data, ptr noundef @dtls_decrypted_data, ptr noundef @dtls_decrypted_data_avail)
  %86 = icmp eq i32 %85, 0
  %87 = zext i1 %86 to i8
  store i8 %87, ptr %22, align 1
  %88 = load i8, ptr %22, align 1, !range !6, !noundef !7
  %89 = trunc i8 %88 to i1
  br i1 %89, label %90, label %104

90:                                               ; preds = %71
  %91 = load ptr, ptr %13, align 8
  %92 = load ptr, ptr %12, align 8
  %93 = call i32 @tvb_raw_offset(ptr noundef %92)
  %94 = load i32, ptr %14, align 4
  %95 = add i32 %93, %94
  %96 = load i8, ptr %16, align 1
  %97 = load i8, ptr %19, align 1
  %98 = load ptr, ptr %15, align 8
  %99 = getelementptr inbounds nuw %struct._SslDecryptSession, ptr %98, i32 0, i32 24
  %100 = getelementptr inbounds nuw %struct._SslSession, ptr %99, i32 0, i32 2
  %101 = load i16, ptr %100, align 8
  %102 = zext i16 %101 to i32
  %103 = icmp eq i32 %102, 65276
  call void @dtls_save_decrypted_record(ptr noundef %91, i32 noundef %95, i8 noundef zeroext %96, i8 noundef zeroext %97, i1 noundef zeroext %103)
  br label %104

104:                                              ; preds = %90, %71
  %105 = load i8, ptr %22, align 1, !range !6, !noundef !7
  %106 = trunc i8 %105 to i1
  store i1 %106, ptr %11, align 1
  store i32 1, ptr %24, align 4
  br label %107

107:                                              ; preds = %104, %51, %27
  call void @llvm.lifetime.end.p0(i64 8, ptr %23) #12
  call void @llvm.lifetime.end.p0(i64 1, ptr %22) #12
  %108 = load i1, ptr %11, align 1
  ret i1 %108
}