; Function Attrs: null_pointer_is_valid sspstrong uwtable
define internal fastcc noundef zeroext i1 @decrypt_dtls_record(ptr noundef %0, ptr noundef %1, i32 noundef %2, ptr noundef nonnull %3, i8 noundef zeroext %4, i16 noundef zeroext %5, i16 noundef zeroext %6, i8 noundef zeroext %7, ptr noundef %8, i8 noundef zeroext %9) unnamed_addr #0 {
  %11 = zext i16 %6 to i32
  %12 = getelementptr inbounds nuw i8, ptr %3, i64 560
  %13 = load i32, ptr %12, align 8
  tail call void (ptr, ...) @ssl_debug_printf(ptr noundef nonnull @.str.964, i32 noundef %11, i32 noundef %13)
  %14 = getelementptr inbounds nuw i8, ptr %3, i64 648
  %15 = load ptr, ptr @dtls_associations, align 8
  %16 = tail call i32 @ssl_packet_from_server(ptr noundef nonnull %14, ptr noundef %15, ptr noundef %1)
  %.not = icmp eq i32 %16, 0
  %.str.966..str.965 = select i1 %.not, ptr @.str.966, ptr @.str.965
  %. = select i1 %.not, i64 584, i64 576
  tail call void (ptr, ...) @ssl_debug_printf(ptr noundef nonnull %.str.966..str.965)
  %17 = getelementptr inbounds nuw i8, ptr %3, i64 %.
  %.0 = load ptr, ptr %17, align 8
  %.not34 = icmp eq ptr %.0, null
  br i1 %.not34, label %18, label %19

18:                                               ; preds = %10
  tail call void (ptr, ...) @ssl_debug_printf(ptr noundef nonnull @.str.967)
  br label %dtls_save_decrypted_record.exit

19:                                               ; preds = %10
  %20 = load i32, ptr getelementptr inbounds nuw (i8, ptr @dtls_decrypted_data, i64 8), align 8
  %21 = icmp ult i32 %20, %11
  br i1 %21, label %22, label %27

22:                                               ; preds = %19
  %23 = add nuw nsw i32 %11, 32
  tail call void (ptr, ...) @ssl_debug_printf(ptr noundef nonnull @.str.968, i32 noundef %23, i32 noundef %20)
  %24 = load ptr, ptr @dtls_decrypted_data, align 8
  %25 = zext nneg i32 %23 to i64
  %26 = tail call ptr @g_realloc(ptr noundef %24, i64 noundef %25)
  store ptr %26, ptr @dtls_decrypted_data, align 8
  store i32 %23, ptr getelementptr inbounds nuw (i8, ptr @dtls_decrypted_data, i64 8), align 8
  br label %27

27:                                               ; preds = %22, %19
  %28 = phi i32 [ %23, %22 ], [ %20, %19 ]
  store i32 %28, ptr @dtls_decrypted_data_avail, align 4
  %29 = tail call ptr @tvb_get_ptr(ptr noundef %0, i32 noundef %2, i32 noundef %11)
  %30 = tail call i32 @ssl_decrypt_record(ptr noundef nonnull %3, ptr noundef nonnull %.0, i8 noundef zeroext %4, i16 noundef zeroext %5, i1 noundef zeroext false, ptr noundef %29, i16 noundef zeroext %6, ptr noundef %8, i8 noundef zeroext %9, ptr noundef nonnull @dtls_compressed_data, ptr noundef nonnull @dtls_decrypted_data, ptr noundef nonnull @dtls_decrypted_data_avail)
  %31 = icmp eq i32 %30, 0
  br i1 %31, label %32, label %dtls_save_decrypted_record.exit

32:                                               ; preds = %27
  %33 = tail call i32 @tvb_raw_offset(ptr noundef %0)
  %34 = add i32 %33, %2
  %35 = load ptr, ptr @dtls_decrypted_data, align 8
  %36 = load i32, ptr @dtls_decrypted_data_avail, align 4
  %37 = icmp eq i32 %36, 0
  br i1 %37, label %dtls_save_decrypted_record.exit, label %38

38:                                               ; preds = %32
  %39 = getelementptr inbounds nuw i8, ptr %3, i64 656
  %40 = load i16, ptr %39, align 8
  %41 = icmp eq i16 %40, -260
  %42 = icmp eq i8 %4, 25
  %brmerge.i = or i1 %42, %41
  br i1 %brmerge.i, label %.preheader.preheader.i, label %58

.preheader.preheader.i:                           ; preds = %38
  %43 = zext i32 %36 to i64
  br label %.preheader.i

.preheader.i:                                     ; preds = %44, %.preheader.preheader.i
  %indvars.iv.i = phi i64 [ %43, %.preheader.preheader.i ], [ %45, %44 ]
  %.not.i = icmp eq i64 %indvars.iv.i, 0
  br i1 %.not.i, label %49, label %44

44:                                               ; preds = %.preheader.i
  %45 = add nsw i64 %indvars.iv.i, -1
  %46 = getelementptr i8, ptr %35, i64 %45
  %47 = load i8, ptr %46, align 1
  %48 = icmp eq i8 %47, 0
  br i1 %48, label %.preheader.i, label %50, !llvm.loop !17

49:                                               ; preds = %.preheader.i
  tail call void (ptr, ...) @ssl_debug_printf(ptr noundef nonnull @.str.969, ptr noundef nonnull @__func__.dtls_save_decrypted_record, i32 noundef %36)
  tail call void (ptr, ...) @ssl_debug_printf(ptr noundef nonnull @.str.970, ptr noundef nonnull @__func__.dtls_save_decrypted_record)
  br label %dtls_save_decrypted_record.exit

50:                                               ; preds = %44
  %51 = trunc nuw i64 %indvars.iv.i to i32
  %52 = sub i32 %36, %51
  tail call void (ptr, ...) @ssl_debug_printf(ptr noundef nonnull @.str.969, ptr noundef nonnull @__func__.dtls_save_decrypted_record, i32 noundef %52)
  %53 = add i32 %51, -1
  %54 = zext i32 %53 to i64
  %55 = getelementptr i8, ptr %35, i64 %54
  %56 = load i8, ptr %55, align 1
  %57 = icmp eq i32 %53, 0
  br i1 %57, label %dtls_save_decrypted_record.exit, label %58

58:                                               ; preds = %50, %38
  %.017.i = phi i8 [ %56, %50 ], [ %4, %38 ]
  %.0.i = phi i32 [ %53, %50 ], [ %36, %38 ]
  %59 = load i32, ptr @proto_dtls, align 4
  %60 = zext i8 %.017.i to i32
  tail call void @ssl_add_record_info(i32 noundef %59, ptr noundef %1, ptr noundef %35, i32 noundef %.0.i, i32 noundef %34, ptr noundef null, i32 noundef %60, i8 noundef zeroext %7)
  br label %dtls_save_decrypted_record.exit

dtls_save_decrypted_record.exit:                  ; preds = %58, %50, %49, %32, %27, %18
  %.030 = phi i1 [ false, %18 ], [ false, %27 ], [ true, %32 ], [ true, %49 ], [ true, %50 ], [ true, %58 ]
  ret i1 %.030
}